target datalayout = "e-m:e-p270:32:32-p271:32:32-p272:64:64-i64:64-i128:128-f80:128-n8:16:32:64-S128"
target triple = "x86_64-pc-linux-gnu"

%struct.strvec = type { ptr, i64, i64 }

@empty_strvec = dso_local global [1 x ptr] zeroinitializer, align 8
@__const.strvec_init.blank = private unnamed_addr constant %struct.strvec { ptr @empty_strvec, i64 0, i64 0 }, align 8

; Function Attrs: nounwind uwtable
define dso_local void @strvec_init(ptr noundef %0) #0 {
  %2 = alloca ptr, align 8
  %3 = alloca %struct.strvec, align 8
  store ptr %0, ptr %2, align 8, !tbaa !4
  call void @llvm.lifetime.start.p0(i64 24, ptr %3) #8
  call void @llvm.memcpy.p0.p0.i64(ptr align 8 %3, ptr align 8 @__const.strvec_init.blank, i64 24, i1 false)
  %4 = load ptr, ptr %2, align 8, !tbaa !4
  call void @llvm.memcpy.p0.p0.i64(ptr align 8 %4, ptr align 8 %3, i64 24, i1 false)
  call void @llvm.lifetime.end.p0(i64 24, ptr %3) #8
  ret void
}

; Function Attrs: nounwind uwtable
define dso_local void @strvec_clear(ptr noundef %0) #0 {
  %2 = alloca ptr, align 8
  %3 = alloca i64, align 8
  store ptr %0, ptr %2, align 8, !tbaa !4
  %4 = load ptr, ptr %2, align 8, !tbaa !4
  %5 = getelementptr inbounds nuw %struct.strvec, ptr %4, i32 0, i32 0
  %6 = load ptr, ptr %5, align 8, !tbaa !11
  %7 = icmp ne ptr %6, @empty_strvec
  br i1 %7, label %8, label %30

8:                                                ; preds = %1
  call void @llvm.lifetime.start.p0(i64 8, ptr %3) #8
  store i64 0, ptr %3, align 8, !tbaa !17
  br label %9

9:                                                ; preds = %23, %8
  %10 = load i64, ptr %3, align 8, !tbaa !17
  %11 = load ptr, ptr %2, align 8, !tbaa !4
  %12 = getelementptr inbounds nuw %struct.strvec, ptr %11, i32 0, i32 1
  %13 = load i64, ptr %12, align 8, !tbaa !15
  %14 = icmp ult i64 %10, %13
  br i1 %14, label %16, label %15

15:                                               ; preds = %9
  call void @llvm.lifetime.end.p0(i64 8, ptr %3) #8
  br label %26

16:                                               ; preds = %9
  %17 = load ptr, ptr %2, align 8, !tbaa !4
  %18 = getelementptr inbounds nuw %struct.strvec, ptr %17, i32 0, i32 0
  %19 = load ptr, ptr %18, align 8, !tbaa !11
  %20 = load i64, ptr %3, align 8, !tbaa !17
  %21 = getelementptr inbounds nuw ptr, ptr %19, i64 %20
  %22 = load ptr, ptr %21, align 8, !tbaa !9
  call void @free(ptr noundef %22) #8
  br label %23

23:                                               ; preds = %16
  %24 = load i64, ptr %3, align 8, !tbaa !17
  %25 = add i64 %24, 1
  store i64 %25, ptr %3, align 8, !tbaa !17
  br label %9, !llvm.loop !28

26:                                               ; preds = %15
  %27 = load ptr, ptr %2, align 8, !tbaa !4
  %28 = getelementptr inbounds nuw %struct.strvec, ptr %27, i32 0, i32 0
  %29 = load ptr, ptr %28, align 8, !tbaa !11
  call void @free(ptr noundef %29) #8
  br label %30

30:                                               ; preds = %26, %1
  %31 = load ptr, ptr %2, align 8, !tbaa !4
  call void @strvec_init(ptr noundef %31)
  ret void
}