; Function Attrs: nounwind uwtable
define dso_local void @strvec_clear(ptr noundef captures(none) %0) local_unnamed_addr #3 {
  %2 = load ptr, ptr %0, align 8, !tbaa !4
  %.not = icmp eq ptr %2, @empty_strvec
  br i1 %.not, label %12, label %.preheader

.preheader:                                       ; preds = %1
  %3 = getelementptr inbounds nuw i8, ptr %0, i64 8
  %4 = load i64, ptr %3, align 8, !tbaa !11
  %.not8 = icmp eq i64 %4, 0
  br i1 %.not8, label %._crit_edge, label %.lr.ph

._crit_edge.loopexit:                             ; preds = %.lr.ph
  %.pre = load ptr, ptr %0, align 8, !tbaa !4
  br label %._crit_edge

._crit_edge:                                      ; preds = %._crit_edge.loopexit, %.preheader
  %5 = phi ptr [ %.pre, %._crit_edge.loopexit ], [ %2, %.preheader ]
  tail call void @free(ptr noundef %5) #11
  br label %12

.lr.ph:                                           ; preds = %.preheader, %.lr.ph
  %.07 = phi i64 [ %9, %.lr.ph ], [ 0, %.preheader ]
  %6 = load ptr, ptr %0, align 8, !tbaa !4
  %7 = getelementptr inbounds nuw ptr, ptr %6, i64 %.07
  %8 = load ptr, ptr %7, align 8, !tbaa !13
  tail call void @free(ptr noundef %8) #11
  %9 = add nuw i64 %.07, 1
  %10 = load i64, ptr %3, align 8, !tbaa !11
  %11 = icmp ult i64 %9, %10
  br i1 %11, label %.lr.ph, label %._crit_edge.loopexit, !llvm.loop !24

12:                                               ; preds = %._crit_edge, %1
  tail call void @llvm.memcpy.p0.p0.i64(ptr noundef nonnull align 8 dereferenceable(24) %0, ptr noundef nonnull align 8 dereferenceable(24) @__const.strvec_init.blank, i64 24, i1 false)
  ret void
}